target datalayout = "e-m:e-p270:32:32-p271:32:32-p272:64:64-i64:64-i128:128-f80:128-n8:16:32:64-S128"
target triple = "x86_64-pc-linux-gnu"

%"class.std::mutex" = type { %"class.std::__mutex_base" }
%"class.std::__mutex_base" = type { %union.pthread_mutex_t }
%union.pthread_mutex_t = type { %struct.__pthread_mutex_s }
%struct.__pthread_mutex_s = type { i32, i32, i32, i32, i32, i16, i16, %struct.__pthread_internal_list }
%struct.__pthread_internal_list = type { ptr, ptr }
%"struct.std::__detail::_Hash_node_base" = type { ptr }
%"struct.std::__detail::_Prime_rehash_policy" = type { float, i64 }
%"struct.std::__detail::_List_node_header" = type { %"struct.std::__detail::_List_node_base", i64 }
%"struct.std::__detail::_List_node_base" = type { ptr, ptr }
%"class.osgeo::proj::NetworkFilePropertiesCache" = type { %"class.osgeo::proj::lru11::Cache.5" }
%"class.osgeo::proj::lru11::Cache.5" = type { ptr, %"class.std::mutex", %"class.std::unordered_map.6", %"class.std::__cxx11::list.24", i64, i64 }
%"class.std::unordered_map.6" = type { %"class.std::_Hashtable.7" }
%"class.std::_Hashtable.7" = type { ptr, i64, %"struct.std::__detail::_Hash_node_base", i64, %"struct.std::__detail::_Prime_rehash_policy", ptr }
%"class.std::__cxx11::list.24" = type { %"class.std::__cxx11::_List_base.25" }
%"class.std::__cxx11::_List_base.25" = type { %"struct.std::__cxx11::_List_base<osgeo::proj::lru11::KeyValuePair<std::__cxx11::basic_string<char>, osgeo::proj::FileProperties>, std::allocator<osgeo::proj::lru11::KeyValuePair<std::__cxx11::basic_string<char>, osgeo::proj::FileProperties>>>::_List_impl" }
%"struct.std::__cxx11::_List_base<osgeo::proj::lru11::KeyValuePair<std::__cxx11::basic_string<char>, osgeo::proj::FileProperties>, std::allocator<osgeo::proj::lru11::KeyValuePair<std::__cxx11::basic_string<char>, osgeo::proj::FileProperties>>>::_List_impl" = type { %"struct.std::__detail::_List_node_header" }
%"class.std::shared_ptr" = type { %"class.std::__shared_ptr" }
%"class.std::__shared_ptr" = type { ptr, %"class.std::__shared_count" }
%"class.std::__shared_count" = type { ptr }

@_ZN5osgeo4projL22gNetworkFilePropertiesE = internal global %"class.osgeo::proj::NetworkFilePropertiesCache" zeroinitializer, align 8

; Function Attrs: mustprogress nounwind uwtable
define linkonce_odr void @_ZNSt14__shared_countILN9__gnu_cxx12_Lock_policyE2EEC2Ev(ptr noundef nonnull align 8 dereferenceable(8) %0) unnamed_addr #6 comdat align 2 {
  %2 = alloca ptr, align 8
  store ptr %0, ptr %2, align 8, !tbaa !455
  %3 = load ptr, ptr %2, align 8
  %4 = getelementptr inbounds nuw %"class.std::__shared_count", ptr %3, i32 0, i32 0
  store ptr null, ptr %4, align 8, !tbaa !457
  ret void
}

; Function Attrs: mustprogress nounwind uwtable
define linkonce_odr void @_ZNSt12__shared_ptrISt6vectorIhSaIhEELN9__gnu_cxx12_Lock_policyE2EEC2Ev(ptr noundef nonnull align 8 dereferenceable(16) %0) unnamed_addr #6 comdat align 2 {
  %2 = alloca ptr, align 8
  store ptr %0, ptr %2, align 8, !tbaa !140
  %3 = load ptr, ptr %2, align 8
  %4 = getelementptr inbounds nuw %"class.std::__shared_ptr", ptr %3, i32 0, i32 0
  store ptr null, ptr %4, align 8, !tbaa !173
  %5 = getelementptr inbounds nuw %"class.std::__shared_ptr", ptr %3, i32 0, i32 1
  call void @_ZNSt14__shared_countILN9__gnu_cxx12_Lock_policyE2EEC2Ev(ptr noundef nonnull align 8 dereferenceable(8) %5) #4
  ret void
}

; Function Attrs: mustprogress nounwind uwtable
define linkonce_odr void @_ZNSt10shared_ptrISt6vectorIhSaIhEEEC2Ev(ptr noundef nonnull align 8 dereferenceable(16) %0) unnamed_addr #6 comdat align 2 {
  %2 = alloca ptr, align 8
  store ptr %0, ptr %2, align 8, !tbaa !114
  %3 = load ptr, ptr %2, align 8
  call void @_ZNSt12__shared_ptrISt6vectorIhSaIhEELN9__gnu_cxx12_Lock_policyE2EEC2Ev(ptr noundef nonnull align 8 dereferenceable(16) %3) #4
  ret void
}

; Function Attrs: mustprogress nounwind uwtable
define linkonce_odr void @_ZNSt10shared_ptrISt6vectorIhSaIhEEEC2EDn(ptr noundef nonnull align 8 dereferenceable(16) %0, ptr %1) unnamed_addr #6 comdat align 2 {
  %3 = alloca ptr, align 8
  %4 = alloca ptr, align 8
  store ptr %0, ptr %3, align 8, !tbaa !114
  store ptr %1, ptr %4, align 8, !tbaa !46
  %5 = load ptr, ptr %3, align 8
  call void @_ZNSt10shared_ptrISt6vectorIhSaIhEEEC2Ev(ptr noundef nonnull align 8 dereferenceable(16) %5) #4
  ret void
}

; Function Attrs: mustprogress uwtable
define hidden void @_ZN5osgeo4proj17NetworkChunkCache3getEP6pj_ctxRKNSt7__cxx1112basic_stringIcSt11char_traitsIcESaIcEEEyRNS0_14FilePropertiesE(ptr dead_on_unwind noalias writable sret(%"class.std::shared_ptr") align 8 %0, ptr noundef nonnull align 8 dereferenceable(144) %1, ptr noundef %2, ptr noundef nonnull align 8 dereferenceable(32) %3, i64 noundef %4, ptr noundef nonnull align 8 dereferenceable(80) %5) #5 align 2 {
  %7 = alloca ptr, align 8
  %8 = alloca ptr, align 8
  %9 = alloca ptr, align 8
  %10 = alloca ptr, align 8
  %11 = alloca i64, align 8
  %12 = alloca ptr, align 8
  store ptr %0, ptr %7, align 8
  store ptr %1, ptr %8, align 8, !tbaa !3
  store ptr %2, ptr %9, align 8, !tbaa !10
  store ptr %3, ptr %10, align 8, !tbaa !48
  store i64 %4, ptr %11, align 8, !tbaa !77
  store ptr %5, ptr %12, align 8, !tbaa !142
  %13 = load ptr, ptr %8, align 8
  %14 = load ptr, ptr %9, align 8, !tbaa !10
  %15 = load ptr, ptr %10, align 8, !tbaa !48
  %16 = load ptr, ptr %12, align 8, !tbaa !142
  %17 = call noundef zeroext i1 @_ZN5osgeo4proj26NetworkFilePropertiesCache6tryGetEP6pj_ctxRKNSt7__cxx1112basic_stringIcSt11char_traitsIcESaIcEEERNS0_14FilePropertiesE(ptr noundef nonnull align 8 dereferenceable(144) @_ZN5osgeo4projL22gNetworkFilePropertiesE, ptr noundef %14, ptr noundef nonnull align 8 dereferenceable(32) %15, ptr noundef nonnull align 8 dereferenceable(80) %16)
  br i1 %17, label %19, label %18

18:                                               ; preds = %6
  call void @_ZNSt10shared_ptrISt6vectorIhSaIhEEEC2EDn(ptr noundef nonnull align 8 dereferenceable(16) %0, ptr null) #4
  br label %23

19:                                               ; preds = %6
  %20 = load ptr, ptr %9, align 8, !tbaa !10
  %21 = load ptr, ptr %10, align 8, !tbaa !48
  %22 = load i64, ptr %11, align 8, !tbaa !77
  call void @_ZN5osgeo4proj17NetworkChunkCache3getEP6pj_ctxRKNSt7__cxx1112basic_stringIcSt11char_traitsIcESaIcEEEy(ptr dead_on_unwind writable sret(%"class.std::shared_ptr") align 8 %0, ptr noundef nonnull align 8 dereferenceable(144) %13, ptr noundef %20, ptr noundef nonnull align 8 dereferenceable(32) %21, i64 noundef %22)
  br label %23

23:                                               ; preds = %19, %18
  ret void
}