; Function Attrs: mustprogress uwtable
define hidden void @_ZN5osgeo4proj17NetworkChunkCache3getEP6pj_ctxRKNSt7__cxx1112basic_stringIcSt11char_traitsIcESaIcEEEyRNS0_14FilePropertiesE(ptr dead_on_unwind noalias writable sret(%"class.std::shared_ptr") align 8 initializes((0, 16)) %0, ptr noundef nonnull align 8 dereferenceable(144) %1, ptr noundef %2, ptr noundef nonnull align 8 dereferenceable(32) %3, i64 noundef %4, ptr noundef nonnull align 8 dereferenceable(80) %5) local_unnamed_addr #3 align 2 {
  %7 = tail call noundef zeroext i1 @_ZN5osgeo4proj26NetworkFilePropertiesCache6tryGetEP6pj_ctxRKNSt7__cxx1112basic_stringIcSt11char_traitsIcESaIcEEERNS0_14FilePropertiesE(ptr noundef nonnull align 8 dereferenceable(144) @_ZN5osgeo4projL22gNetworkFilePropertiesE, ptr noundef %2, ptr noundef nonnull align 8 dereferenceable(32) %3, ptr noundef nonnull align 8 dereferenceable(80) %5)
  br i1 %7, label %9, label %8

8:                                                ; preds = %6
  tail call void @llvm.memset.p0.i64(ptr noundef nonnull align 8 dereferenceable(16) %0, i8 0, i64 16, i1 false)
  br label %10

9:                                                ; preds = %6
  tail call void @_ZN5osgeo4proj17NetworkChunkCache3getEP6pj_ctxRKNSt7__cxx1112basic_stringIcSt11char_traitsIcESaIcEEEy(ptr dead_on_unwind writable sret(%"class.std::shared_ptr") align 8 %0, ptr noundef nonnull align 8 dereferenceable(144) %1, ptr noundef %2, ptr noundef nonnull align 8 dereferenceable(32) %3, i64 noundef %4)
  br label %10

10:                                               ; preds = %9, %8
  ret void
}